; Function Attrs: nounwind uwtable
define zeroext range(i8 0, 3) i8 @l_compareOn___at_Lean_Elab_InfoTree_hoverableInfoAt_x3f___spec__9(ptr noundef %0, ptr noundef %1, ptr noundef %2) local_unnamed_addr #0 {
  %4 = ptrtoint ptr %0 to i64
  %5 = and i64 %4, 1
  %.not = icmp eq i64 %5, 0
  br i1 %.not, label %6, label %lean_inc.exit

6:                                                ; preds = %3
  %.val.i = load i32, ptr %0, align 4, !tbaa !4
  %7 = icmp sgt i32 %.val.i, 0
  br i1 %7, label %8, label %10, !prof !15

8:                                                ; preds = %6
  %9 = add nuw i32 %.val.i, 1
  store i32 %9, ptr %0, align 4, !tbaa !4
  br label %lean_inc.exit

10:                                               ; preds = %6
  %.not.i27 = icmp eq i32 %.val.i, 0
  br i1 %.not.i27, label %lean_inc.exit, label %11

11:                                               ; preds = %10
  tail call void @lean_inc_ref_cold(ptr noundef nonnull %0) #7
  br label %lean_inc.exit

lean_inc.exit:                                    ; preds = %11, %10, %8, %3
  %12 = tail call ptr @lean_apply_1(ptr noundef %0, ptr noundef %1) #7
  %13 = tail call ptr @lean_apply_1(ptr noundef %0, ptr noundef %2) #7
  %14 = ptrtoint ptr %12 to i64
  %15 = and i64 %14, 1
  %.not.i.i = icmp eq i64 %15, 0
  br i1 %.not.i.i, label %lean_int_dec_lt.exit, label %16, !prof !16

16:                                               ; preds = %lean_inc.exit
  %17 = ptrtoint ptr %13 to i64
  %18 = and i64 %17, 1
  %.not7.i.i = icmp eq i64 %18, 0
  br i1 %.not7.i.i, label %lean_int_dec_lt.exit, label %19, !prof !16

19:                                               ; preds = %16
  %20 = lshr i64 %14, 1
  %21 = trunc i64 %20 to i32
  %22 = lshr i64 %17, 1
  %23 = trunc i64 %22 to i32
  %24 = icmp slt i32 %21, %23
  br i1 %24, label %47, label %26

lean_int_dec_lt.exit:                             ; preds = %lean_inc.exit, %16
  %25 = tail call zeroext i1 @lean_int_big_lt(ptr noundef %12, ptr noundef %13) #7
  br i1 %25, label %47, label %26

26:                                               ; preds = %19, %lean_int_dec_lt.exit
  %27 = ptrtoint ptr %13 to i64
  %28 = and i64 %15, %27
  %or.cond.not.i.i = icmp eq i64 %28, 0
  br i1 %or.cond.not.i.i, label %.critedge.i.i29, label %29, !prof !17

29:                                               ; preds = %26
  %30 = icmp eq ptr %12, %13
  br label %lean_int_dec_eq.exit

.critedge.i.i29:                                  ; preds = %26
  %31 = tail call zeroext i1 @lean_int_big_eq(ptr noundef %12, ptr noundef %13) #7
  br label %lean_int_dec_eq.exit

lean_int_dec_eq.exit:                             ; preds = %29, %.critedge.i.i29
  %.0.i.i28 = phi i1 [ %30, %29 ], [ %31, %.critedge.i.i29 ]
  %32 = and i64 %27, 1
  %.not32 = icmp eq i64 %32, 0
  br i1 %.not32, label %33, label %lean_dec.exit20

33:                                               ; preds = %lean_int_dec_eq.exit
  %34 = load i32, ptr %13, align 4, !tbaa !4
  %35 = icmp sgt i32 %34, 1
  br i1 %35, label %36, label %38, !prof !15

36:                                               ; preds = %33
  %37 = add nsw i32 %34, -1
  store i32 %37, ptr %13, align 4, !tbaa !4
  br label %lean_dec.exit20

38:                                               ; preds = %33
  %.not.i = icmp eq i32 %34, 0
  br i1 %.not.i, label %lean_dec.exit20, label %39

39:                                               ; preds = %38
  tail call void @lean_dec_ref_cold(ptr noundef nonnull %13) #7
  br label %lean_dec.exit20

lean_dec.exit20:                                  ; preds = %39, %38, %36, %lean_int_dec_eq.exit
  br i1 %.not.i.i, label %40, label %lean_dec.exit19

40:                                               ; preds = %lean_dec.exit20
  %41 = load i32, ptr %12, align 4, !tbaa !4
  %42 = icmp sgt i32 %41, 1
  br i1 %42, label %43, label %45, !prof !15

43:                                               ; preds = %40
  %44 = add nsw i32 %41, -1
  store i32 %44, ptr %12, align 4, !tbaa !4
  br label %lean_dec.exit19

45:                                               ; preds = %40
  %.not.i21 = icmp eq i32 %41, 0
  br i1 %.not.i21, label %lean_dec.exit19, label %46

46:                                               ; preds = %45
  tail call void @lean_dec_ref_cold(ptr noundef nonnull %12) #7
  br label %lean_dec.exit19

lean_dec.exit19:                                  ; preds = %46, %45, %43, %lean_dec.exit20
  %. = select i1 %.0.i.i28, i8 1, i8 2
  br label %lean_dec.exit

47:                                               ; preds = %19, %lean_int_dec_lt.exit
  %48 = ptrtoint ptr %13 to i64
  %49 = and i64 %48, 1
  %.not30 = icmp eq i64 %49, 0
  br i1 %.not30, label %50, label %lean_dec.exit18

50:                                               ; preds = %47
  %51 = load i32, ptr %13, align 4, !tbaa !4
  %52 = icmp sgt i32 %51, 1
  br i1 %52, label %53, label %55, !prof !15

53:                                               ; preds = %50
  %54 = add nsw i32 %51, -1
  store i32 %54, ptr %13, align 4, !tbaa !4
  br label %lean_dec.exit18

55:                                               ; preds = %50
  %.not.i23 = icmp eq i32 %51, 0
  br i1 %.not.i23, label %lean_dec.exit18, label %56

56:                                               ; preds = %55
  tail call void @lean_dec_ref_cold(ptr noundef nonnull %13) #7
  br label %lean_dec.exit18

lean_dec.exit18:                                  ; preds = %56, %55, %53, %47
  br i1 %.not.i.i, label %57, label %lean_dec.exit

57:                                               ; preds = %lean_dec.exit18
  %58 = load i32, ptr %12, align 4, !tbaa !4
  %59 = icmp sgt i32 %58, 1
  br i1 %59, label %60, label %62, !prof !15

60:                                               ; preds = %57
  %61 = add nsw i32 %58, -1
  store i32 %61, ptr %12, align 4, !tbaa !4
  br label %lean_dec.exit

62:                                               ; preds = %57
  %.not.i25 = icmp eq i32 %58, 0
  br i1 %.not.i25, label %lean_dec.exit, label %63

63:                                               ; preds = %62
  tail call void @lean_dec_ref_cold(ptr noundef nonnull %12) #7
  br label %lean_dec.exit

lean_dec.exit:                                    ; preds = %lean_dec.exit18, %60, %62, %63, %lean_dec.exit19
  %.1 = phi i8 [ %., %lean_dec.exit19 ], [ 0, %63 ], [ 0, %62 ], [ 0, %60 ], [ 0, %lean_dec.exit18 ]
  ret i8 %.1
}